(lp0
(dp1
S'steps'
p2
I32
sS'nests'
p3
I20
sS'ants'
p4
I50
sa(dp5
g2
I36
sg3
I20
sg4
I100
sa(dp6
g2
I45
sg3
I20
sg4
I150
sa(dp7
g2
I40
sg3
I20
sg4
I200
sa(dp8
g2
I35
sg3
I20
sg4
I250
sa(dp9
g2
I45
sg3
I20
sg4
I300
sa(dp10
g2
I56
sg3
I20
sg4
I350
sa(dp11
g2
I38
sg3
I20
sg4
I400
sa(dp12
g2
I31
sg3
I20
sg4
I450
sa(dp13
g2
I35
sg3
I20
sg4
I500
sa(dp14
g2
I45
sg3
I20
sg4
I550
sa(dp15
g2
I45
sg3
I20
sg4
I600
sa(dp16
g2
I64
sg3
I20
sg4
I650
sa(dp17
g2
I37
sg3
I20
sg4
I700
sa(dp18
g2
I30
sg3
I20
sg4
I750
sa(dp19
g2
I64
sg3
I20
sg4
I800
sa(dp20
g2
I44
sg3
I20
sg4
I850
sa(dp21
g2
I41
sg3
I20
sg4
I900
sa(dp22
g2
I45
sg3
I20
sg4
I950
sa(dp23
g2
I41
sg3
I20
sg4
I1000
sa.